target datalayout = "e-m:e-p270:32:32-p271:32:32-p272:64:64-i64:64-i128:128-f80:128-n8:16:32:64-S128"
target triple = "x86_64-pc-linux-gnu"

%struct.curl_trc_feat = type { ptr, i32 }
%struct.Curl_easy = type { i32, i64, i64, ptr, %struct.Curl_llist_node, %struct.Curl_llist_node, i32, i32, %struct.Curl_message, %struct.easy_pollset, %struct.Names, ptr, ptr, ptr, ptr, %struct.SingleRequest, %struct.UserDefined, ptr, ptr, ptr, %struct.Progress, %struct.UrlState, ptr, %struct.PureInfo, %struct.curl_tlssessioninfo }
%struct.Curl_llist_node = type { ptr, ptr, ptr, ptr }
%struct.Curl_message = type { %struct.Curl_llist_node, %struct.CURLMsg }
%struct.CURLMsg = type { i32, ptr, %union.anon }
%union.anon = type { ptr }
%struct.easy_pollset = type { [5 x i32], i32, [5 x i8] }
%struct.Names = type { ptr, i32 }
%struct.SingleRequest = type <{ i64, i64, i64, i64, %struct.curltime, i32, i32, i32, i32, i64, i32, i32, i8, i8, [2 x i8], i32, ptr, ptr, %struct.bufq, i64, i64, ptr, ptr, %union.anon.0, ptr, i8, i32, [3 x i8] }>
%struct.curltime = type { i64, i32 }
%struct.bufq = type { ptr, ptr, ptr, ptr, i64, i64, i64, i32 }
%union.anon.0 = type { ptr }
%struct.UserDefined = type <{ ptr, ptr, ptr, ptr, ptr, ptr, i64, i64, i64, ptr, ptr, i64, ptr, ptr, ptr, ptr, ptr, ptr, ptr, ptr, ptr, ptr, ptr, ptr, ptr, ptr, ptr, ptr, ptr, ptr, ptr, ptr, ptr, ptr, ptr, i64, i64, i64, i64, i64, i64, i64, i64, i64, ptr, ptr, %struct.curl_mimepart, ptr, ptr, ptr, i64, %struct.ssl_config_data, %struct.ssl_config_data, ptr, i16, i8, i8, %struct.ssl_general_config, i32, i32, i32, [4 x i8], ptr, ptr, i64, i32, i8, i8, i8, i8, ptr, ptr, ptr, i32, [4 x i8], [74 x ptr], [8 x ptr], i32, i32, i32, [4 x i8], ptr, i32, [4 x i8], ptr, ptr, ptr, ptr, ptr, i32, i32, i32, i32, i32, i32, i32, i32, i64, ptr, ptr, i64, ptr, i64, ptr, ptr, ptr, ptr, i32, i16, i16, i16, i8, i8, i8, i8, i8, i8, i8, i8, i64, [6 x i8] }>
%struct.curl_mimepart = type { ptr, ptr, i32, i32, ptr, ptr, ptr, ptr, ptr, ptr, ptr, ptr, ptr, ptr, ptr, i64, %struct.mime_state, ptr, %struct.mime_encoder_state, i64 }
%struct.mime_state = type { i32, ptr, i64 }
%struct.mime_encoder_state = type { i64, i64, i64, [256 x i8] }
%struct.ssl_config_data = type { %struct.ssl_primary_config, i64, ptr, ptr, ptr, ptr, ptr, ptr, ptr, i16 }
%struct.ssl_primary_config = type { ptr, ptr, ptr, ptr, ptr, ptr, ptr, ptr, ptr, ptr, ptr, ptr, ptr, ptr, i8, i32, i8, i8 }
%struct.ssl_general_config = type { i32 }
%struct.Progress = type { i64, %struct.pgrs_dir, %struct.pgrs_dir, i64, i64, i32, i32, i64, i64, i64, i64, i64, i64, i64, i64, i64, %struct.curltime, %struct.curltime, %struct.curltime, %struct.curltime, %struct.curltime, [6 x i64], [6 x %struct.curltime], i32, i8 }
%struct.pgrs_dir = type { i64, i64, i64, %struct.pgrs_measure }
%struct.pgrs_measure = type { %struct.curltime, i64 }
%struct.UrlState = type { %struct.curltime, i64, i64, %struct.dynbuf, ptr, i64, ptr, i32, i32, i32, ptr, i32, i64, i32, ptr, %struct.digestdata, %struct.digestdata, %struct.auth, %struct.auth, %struct.Curl_async, ptr, i8, %struct.curltime, %struct.Curl_tree, %struct.Curl_llist, [15 x %struct.time_node], ptr, ptr, i64, i64, i64, i64, [32 x i8], i64, ptr, ptr, ptr, %struct.urlpieces, ptr, ptr, ptr, ptr, ptr, i64, %struct.dynbuf, %struct.Curl_llist, [2 x %struct.curl_header], ptr, i32, ptr, ptr, %struct.store_netrc, %struct.dynamically_allocated_data, i8, i8, i8, i8, i32 }
%struct.digestdata = type { ptr, ptr, ptr, ptr, ptr, ptr, i32, i8, i8 }
%struct.auth = type { i64, i64, i64, i8 }
%struct.Curl_async = type { ptr, ptr, ptr, ptr, i32, i32, i8 }
%struct.Curl_tree = type { ptr, ptr, ptr, ptr, %struct.curltime, ptr }
%struct.time_node = type { %struct.Curl_llist_node, %struct.curltime, i32 }
%struct.urlpieces = type { ptr, ptr, ptr, ptr, ptr, ptr, ptr, ptr }
%struct.dynbuf = type { ptr, i64, i64, i64 }
%struct.Curl_llist = type { ptr, ptr, ptr, i64 }
%struct.curl_header = type { ptr, ptr, i64, i64, i32, ptr }
%struct.store_netrc = type { %struct.dynbuf, ptr, i8 }
%struct.dynamically_allocated_data = type { ptr, ptr, ptr, ptr, ptr, ptr, ptr, ptr, ptr, ptr, ptr, ptr, ptr, ptr }
%struct.PureInfo = type { i32, i32, i32, i64, i64, i64, i64, i64, i64, i64, ptr, ptr, i64, i32, %struct.ip_quadruple, i32, ptr, i32, %struct.curl_certinfo, i32, i8 }
%struct.ip_quadruple = type { [46 x i8], [46 x i8], i32, i32 }
%struct.curl_certinfo = type { i32, ptr }
%struct.curl_tlssessioninfo = type { i32, ptr }
%struct.ws_collect = type { ptr, ptr, i64, i64, i32, i32, i64, i64, i8 }

@.str.34 = private unnamed_addr constant [37 x i8] c"WS: auto-respond to PING with a PONG\00", align 1

; Function Attrs: nounwind uwtable
define internal i64 @ws_client_collect(ptr noundef %0, i64 noundef %1, i32 noundef %2, i32 noundef %3, i64 noundef %4, i64 noundef %5, ptr noundef %6, ptr noundef %7) #0 {
  %9 = alloca i64, align 8
  %10 = alloca ptr, align 8
  %11 = alloca i64, align 8
  %12 = alloca i32, align 4
  %13 = alloca i32, align 4
  %14 = alloca i64, align 8
  %15 = alloca i64, align 8
  %16 = alloca ptr, align 8
  %17 = alloca ptr, align 8
  %18 = alloca ptr, align 8
  %19 = alloca i64, align 8
  %20 = alloca i64, align 8
  %21 = alloca i64, align 8
  %22 = alloca i32, align 4
  store ptr %0, ptr %10, align 8, !tbaa !20
  store i64 %1, ptr %11, align 8, !tbaa !17
  store i32 %2, ptr %12, align 4, !tbaa !10
  store i32 %3, ptr %13, align 4, !tbaa !10
  store i64 %4, ptr %14, align 8, !tbaa !17
  store i64 %5, ptr %15, align 8, !tbaa !17
  store ptr %6, ptr %16, align 8, !tbaa !19
  store ptr %7, ptr %17, align 8, !tbaa !19
  call void @llvm.lifetime.start.p0(i64 8, ptr %18) #6
  %23 = load ptr, ptr %16, align 8, !tbaa !19
  store ptr %23, ptr %18, align 8, !tbaa !140
  call void @llvm.lifetime.start.p0(i64 8, ptr %19) #6
  call void @llvm.lifetime.start.p0(i64 8, ptr %20) #6
  %24 = load i64, ptr %15, align 8, !tbaa !17
  %25 = load i64, ptr %14, align 8, !tbaa !17
  %26 = load i64, ptr %11, align 8, !tbaa !17
  %27 = add i64 %25, %26
  %28 = sub i64 %24, %27
  store i64 %28, ptr %20, align 8, !tbaa !17
  %29 = load ptr, ptr %18, align 8, !tbaa !140
  %30 = getelementptr inbounds nuw %struct.ws_collect, ptr %29, i32 0, i32 3
  %31 = load i64, ptr %30, align 8, !tbaa !132
  %32 = icmp ne i64 %31, 0
  br i1 %32, label %46, label %33

33:                                               ; preds = %8
  %34 = load i32, ptr %12, align 4, !tbaa !10
  %35 = load ptr, ptr %18, align 8, !tbaa !140
  %36 = getelementptr inbounds nuw %struct.ws_collect, ptr %35, i32 0, i32 4
  store i32 %34, ptr %36, align 8, !tbaa !128
  %37 = load i32, ptr %13, align 4, !tbaa !10
  %38 = load ptr, ptr %18, align 8, !tbaa !140
  %39 = getelementptr inbounds nuw %struct.ws_collect, ptr %38, i32 0, i32 5
  store i32 %37, ptr %39, align 4, !tbaa !129
  %40 = load i64, ptr %14, align 8, !tbaa !17
  %41 = load ptr, ptr %18, align 8, !tbaa !140
  %42 = getelementptr inbounds nuw %struct.ws_collect, ptr %41, i32 0, i32 6
  store i64 %40, ptr %42, align 8, !tbaa !130
  %43 = load i64, ptr %15, align 8, !tbaa !17
  %44 = load ptr, ptr %18, align 8, !tbaa !140
  %45 = getelementptr inbounds nuw %struct.ws_collect, ptr %44, i32 0, i32 7
  store i64 %43, ptr %45, align 8, !tbaa !131
  br label %46

46:                                               ; preds = %33, %8
  %47 = load i32, ptr %13, align 4, !tbaa !10
  %48 = and i32 %47, 16
  %49 = icmp ne i32 %48, 0
  br i1 %49, label %50, label %111

50:                                               ; preds = %46
  %51 = load i64, ptr %20, align 8, !tbaa !17
  %52 = icmp ne i64 %51, 0
  br i1 %52, label %111, label %53

53:                                               ; preds = %50
  call void @llvm.lifetime.start.p0(i64 8, ptr %21) #6
  br label %54

54:                                               ; preds = %53
  %55 = load ptr, ptr %18, align 8, !tbaa !140
  %56 = getelementptr inbounds nuw %struct.ws_collect, ptr %55, i32 0, i32 0
  %57 = load ptr, ptr %56, align 8, !tbaa !120
  %58 = icmp ne ptr %57, null
  br i1 %58, label %59, label %92

59:                                               ; preds = %54
  %60 = load ptr, ptr %18, align 8, !tbaa !140
  %61 = getelementptr inbounds nuw %struct.ws_collect, ptr %60, i32 0, i32 0
  %62 = load ptr, ptr %61, align 8, !tbaa !120
  %63 = getelementptr inbounds nuw %struct.Curl_easy, ptr %62, i32 0, i32 16
  %64 = getelementptr inbounds nuw %struct.UserDefined, ptr %63, i32 0, i32 119
  %65 = load i64, ptr %64, align 2
  %66 = lshr i64 %65, 31
  %67 = and i64 %66, 1
  %68 = trunc i64 %67 to i32
  %69 = icmp ne i32 %68, 0
  br i1 %69, label %70, label %92

70:                                               ; preds = %59
  %71 = load ptr, ptr %18, align 8, !tbaa !140
  %72 = getelementptr inbounds nuw %struct.ws_collect, ptr %71, i32 0, i32 0
  %73 = load ptr, ptr %72, align 8, !tbaa !120
  %74 = getelementptr inbounds nuw %struct.Curl_easy, ptr %73, i32 0, i32 21
  %75 = getelementptr inbounds nuw %struct.UrlState, ptr %74, i32 0, i32 50
  %76 = load ptr, ptr %75, align 8, !tbaa !94
  %77 = icmp ne ptr %76, null
  br i1 %77, label %78, label %88

78:                                               ; preds = %70
  %79 = load ptr, ptr %18, align 8, !tbaa !140
  %80 = getelementptr inbounds nuw %struct.ws_collect, ptr %79, i32 0, i32 0
  %81 = load ptr, ptr %80, align 8, !tbaa !120
  %82 = getelementptr inbounds nuw %struct.Curl_easy, ptr %81, i32 0, i32 21
  %83 = getelementptr inbounds nuw %struct.UrlState, ptr %82, i32 0, i32 50
  %84 = load ptr, ptr %83, align 8, !tbaa !94
  %85 = getelementptr inbounds nuw %struct.curl_trc_feat, ptr %84, i32 0, i32 1
  %86 = load i32, ptr %85, align 8, !tbaa !95
  %87 = icmp sge i32 %86, 1
  br i1 %87, label %88, label %92

88:                                               ; preds = %78, %70
  %89 = load ptr, ptr %18, align 8, !tbaa !140
  %90 = getelementptr inbounds nuw %struct.ws_collect, ptr %89, i32 0, i32 0
  %91 = load ptr, ptr %90, align 8, !tbaa !120
  call void (ptr, ptr, ...) @Curl_infof(ptr noundef %91, ptr noundef @.str.34)
  br label %92

92:                                               ; preds = %88, %78, %59, %54
  br label %93

93:                                               ; preds = %92
  br label %94

94:                                               ; preds = %93
  %95 = load ptr, ptr %18, align 8, !tbaa !140
  %96 = getelementptr inbounds nuw %struct.ws_collect, ptr %95, i32 0, i32 0
  %97 = load ptr, ptr %96, align 8, !tbaa !120
  %98 = load ptr, ptr %10, align 8, !tbaa !20
  %99 = load i64, ptr %11, align 8, !tbaa !17
  %100 = call i32 @curl_ws_send(ptr noundef %97, ptr noundef %98, i64 noundef %99, ptr noundef %21, i64 noundef 0, i32 noundef 64)
  %101 = load ptr, ptr %17, align 8, !tbaa !19
  store i32 %100, ptr %101, align 4, !tbaa !10
  %102 = load ptr, ptr %17, align 8, !tbaa !19
  %103 = load i32, ptr %102, align 4, !tbaa !10
  %104 = icmp ne i32 %103, 0
  br i1 %104, label %105, label %106

105:                                              ; preds = %94
  store i64 -1, ptr %9, align 8
  store i32 1, ptr %22, align 4
  br label %108

106:                                              ; preds = %94
  %107 = load i64, ptr %21, align 8, !tbaa !17
  store i64 %107, ptr %19, align 8, !tbaa !17
  store i32 0, ptr %22, align 4
  br label %108

108:                                              ; preds = %106, %105
  call void @llvm.lifetime.end.p0(i64 8, ptr %21) #6
  %109 = load i32, ptr %22, align 4
  switch i32 %109, label %165 [
    i32 0, label %110
  ]

110:                                              ; preds = %108
  br label %163

111:                                              ; preds = %50, %46
  %112 = load ptr, ptr %18, align 8, !tbaa !140
  %113 = getelementptr inbounds nuw %struct.ws_collect, ptr %112, i32 0, i32 8
  store i8 1, ptr %113, align 8, !tbaa !125
  br label %114

114:                                              ; preds = %111
  br label %115

115:                                              ; preds = %114
  br label %116

116:                                              ; preds = %115
  %117 = load i64, ptr %11, align 8, !tbaa !17
  %118 = load ptr, ptr %18, align 8, !tbaa !140
  %119 = getelementptr inbounds nuw %struct.ws_collect, ptr %118, i32 0, i32 2
  %120 = load i64, ptr %119, align 8, !tbaa !124
  %121 = load ptr, ptr %18, align 8, !tbaa !140
  %122 = getelementptr inbounds nuw %struct.ws_collect, ptr %121, i32 0, i32 3
  %123 = load i64, ptr %122, align 8, !tbaa !132
  %124 = sub i64 %120, %123
  %125 = icmp ult i64 %117, %124
  br i1 %125, label %126, label %128

126:                                              ; preds = %116
  %127 = load i64, ptr %11, align 8, !tbaa !17
  br label %136

128:                                              ; preds = %116
  %129 = load ptr, ptr %18, align 8, !tbaa !140
  %130 = getelementptr inbounds nuw %struct.ws_collect, ptr %129, i32 0, i32 2
  %131 = load i64, ptr %130, align 8, !tbaa !124
  %132 = load ptr, ptr %18, align 8, !tbaa !140
  %133 = getelementptr inbounds nuw %struct.ws_collect, ptr %132, i32 0, i32 3
  %134 = load i64, ptr %133, align 8, !tbaa !132
  %135 = sub i64 %131, %134
  br label %136

136:                                              ; preds = %128, %126
  %137 = phi i64 [ %127, %126 ], [ %135, %128 ]
  store i64 %137, ptr %19, align 8, !tbaa !17
  %138 = load i64, ptr %19, align 8, !tbaa !17
  %139 = icmp ne i64 %138, 0
  br i1 %139, label %147, label %140

140:                                              ; preds = %136
  %141 = load i64, ptr %11, align 8, !tbaa !17
  %142 = icmp ne i64 %141, 0
  br i1 %142, label %145, label %143

143:                                              ; preds = %140
  %144 = load ptr, ptr %17, align 8, !tbaa !19
  store i32 0, ptr %144, align 4, !tbaa !10
  store i64 0, ptr %9, align 8
  store i32 1, ptr %22, align 4
  br label %165

145:                                              ; preds = %140
  %146 = load ptr, ptr %17, align 8, !tbaa !19
  store i32 81, ptr %146, align 4, !tbaa !10
  store i64 -1, ptr %9, align 8
  store i32 1, ptr %22, align 4
  br label %165

147:                                              ; preds = %136
  %148 = load ptr, ptr %17, align 8, !tbaa !19
  store i32 0, ptr %148, align 4, !tbaa !10
  %149 = load ptr, ptr %18, align 8, !tbaa !140
  %150 = getelementptr inbounds nuw %struct.ws_collect, ptr %149, i32 0, i32 1
  %151 = load ptr, ptr %150, align 8, !tbaa !123
  %152 = load ptr, ptr %18, align 8, !tbaa !140
  %153 = getelementptr inbounds nuw %struct.ws_collect, ptr %152, i32 0, i32 3
  %154 = load i64, ptr %153, align 8, !tbaa !132
  %155 = getelementptr inbounds nuw i8, ptr %151, i64 %154
  %156 = load ptr, ptr %10, align 8, !tbaa !20
  %157 = load i64, ptr %19, align 8, !tbaa !17
  call void @llvm.memcpy.p0.p0.i64(ptr align 1 %155, ptr align 1 %156, i64 %157, i1 false)
  %158 = load i64, ptr %19, align 8, !tbaa !17
  %159 = load ptr, ptr %18, align 8, !tbaa !140
  %160 = getelementptr inbounds nuw %struct.ws_collect, ptr %159, i32 0, i32 3
  %161 = load i64, ptr %160, align 8, !tbaa !132
  %162 = add i64 %161, %158
  store i64 %162, ptr %160, align 8, !tbaa !132
  br label %163

163:                                              ; preds = %147, %110
  %164 = load i64, ptr %19, align 8, !tbaa !17
  store i64 %164, ptr %9, align 8
  store i32 1, ptr %22, align 4
  br label %165

165:                                              ; preds = %163, %145, %143, %108
  call void @llvm.lifetime.end.p0(i64 8, ptr %20) #6
  call void @llvm.lifetime.end.p0(i64 8, ptr %19) #6
  call void @llvm.lifetime.end.p0(i64 8, ptr %18) #6
  %166 = load i64, ptr %9, align 8
  ret i64 %166
}