; Function Attrs: nounwind uwtable
define internal i64 @ws_client_collect(ptr noundef %0, i64 noundef %1, i32 noundef %2, i32 noundef %3, i64 noundef %4, i64 noundef %5, ptr noundef captures(none) %6, ptr noundef writeonly captures(none) initializes((0, 4)) %7) #0 {
  %9 = alloca i64, align 8
  %10 = add i64 %4, %1
  %11 = getelementptr inbounds nuw i8, ptr %6, i64 24
  %12 = load i64, ptr %11, align 8, !tbaa !113
  %.not = icmp eq i64 %12, 0
  br i1 %.not, label %13, label %18

13:                                               ; preds = %8
  %14 = getelementptr inbounds nuw i8, ptr %6, i64 32
  store i32 %2, ptr %14, align 8, !tbaa !109
  %15 = getelementptr inbounds nuw i8, ptr %6, i64 36
  store i32 %3, ptr %15, align 4, !tbaa !110
  %16 = getelementptr inbounds nuw i8, ptr %6, i64 40
  store i64 %4, ptr %16, align 8, !tbaa !111
  %17 = getelementptr inbounds nuw i8, ptr %6, i64 48
  store i64 %5, ptr %17, align 8, !tbaa !112
  br label %18

18:                                               ; preds = %13, %8
  %19 = and i32 %3, 16
  %20 = icmp eq i32 %19, 0
  %21 = icmp ne i64 %5, %10
  %or.cond = or i1 %20, %21
  br i1 %or.cond, label %40, label %22

22:                                               ; preds = %18
  call void @llvm.lifetime.start.p0(i64 8, ptr nonnull %9) #7
  %23 = load ptr, ptr %6, align 8, !tbaa !100
  %.not54 = icmp eq ptr %23, null
  br i1 %.not54, label %36, label %24

24:                                               ; preds = %22
  %25 = getelementptr inbounds nuw i8, ptr %23, i64 2658
  %26 = load i64, ptr %25, align 2
  %27 = and i64 %26, 2147483648
  %.not55 = icmp eq i64 %27, 0
  br i1 %.not55, label %36, label %28

28:                                               ; preds = %24
  %29 = getelementptr inbounds nuw i8, ptr %23, i64 4864
  %30 = load ptr, ptr %29, align 8, !tbaa !85
  %.not56 = icmp eq ptr %30, null
  br i1 %.not56, label %35, label %31

31:                                               ; preds = %28
  %32 = getelementptr inbounds nuw i8, ptr %30, i64 8
  %33 = load i32, ptr %32, align 8, !tbaa !86
  %34 = icmp sgt i32 %33, 0
  br i1 %34, label %35, label %36

35:                                               ; preds = %31, %28
  tail call void (ptr, ptr, ...) @Curl_infof(ptr noundef nonnull %23, ptr noundef nonnull @.str.34) #7
  %.pre = load ptr, ptr %6, align 8, !tbaa !100
  br label %36

36:                                               ; preds = %35, %31, %24, %22
  %37 = phi ptr [ %.pre, %35 ], [ %23, %31 ], [ %23, %24 ], [ null, %22 ]
  %38 = call i32 @curl_ws_send(ptr noundef %37, ptr noundef %0, i64 noundef %1, ptr noundef nonnull %9, i64 noundef 0, i32 noundef 64)
  store i32 %38, ptr %7, align 4, !tbaa !96
  %.not57 = icmp eq i32 %38, 0
  %39 = load i64, ptr %9, align 8
  call void @llvm.lifetime.end.p0(i64 8, ptr nonnull %9) #7
  %spec.select = select i1 %.not57, i64 %39, i64 -1
  br label %54

40:                                               ; preds = %18
  %41 = getelementptr inbounds nuw i8, ptr %6, i64 56
  store i8 1, ptr %41, align 8, !tbaa !106
  %42 = getelementptr inbounds nuw i8, ptr %6, i64 16
  %43 = load i64, ptr %42, align 8, !tbaa !105
  %44 = sub i64 %43, %12
  %. = tail call i64 @llvm.umin.i64(i64 %1, i64 %44)
  %.not58 = icmp eq i64 %., 0
  br i1 %.not58, label %45, label %48

45:                                               ; preds = %40
  %.not59 = icmp eq i64 %1, 0
  br i1 %.not59, label %46, label %47

46:                                               ; preds = %45
  store i32 0, ptr %7, align 4, !tbaa !96
  br label %54

47:                                               ; preds = %45
  store i32 81, ptr %7, align 4, !tbaa !96
  br label %54

48:                                               ; preds = %40
  store i32 0, ptr %7, align 4, !tbaa !96
  %49 = getelementptr inbounds nuw i8, ptr %6, i64 8
  %50 = load ptr, ptr %49, align 8, !tbaa !104
  %51 = getelementptr inbounds nuw i8, ptr %50, i64 %12
  tail call void @llvm.memcpy.p0.p0.i64(ptr align 1 %51, ptr align 1 %0, i64 %., i1 false)
  %52 = load i64, ptr %11, align 8, !tbaa !113
  %53 = add i64 %52, %.
  store i64 %53, ptr %11, align 8, !tbaa !113
  br label %54

54:                                               ; preds = %36, %48, %47, %46
  %.1 = phi i64 [ -1, %47 ], [ 0, %46 ], [ %., %48 ], [ %spec.select, %36 ]
  ret i64 %.1
}